; Function Attrs: nounwind uwtable
define hidden void @mbedtls_ecp_point_free(ptr noundef %0) local_unnamed_addr #7 {
  %2 = icmp eq ptr %0, null
  br i1 %2, label %6, label %3

3:                                                ; preds = %1
  tail call void @mbedtls_mpi_free(ptr noundef nonnull %0) #21
  %4 = getelementptr inbounds nuw i8, ptr %0, i64 16
  tail call void @mbedtls_mpi_free(ptr noundef nonnull %4) #21
  %5 = getelementptr inbounds nuw i8, ptr %0, i64 32
  tail call void @mbedtls_mpi_free(ptr noundef nonnull %5) #21
  br label %6

6:                                                ; preds = %1, %3
  ret void
}